target datalayout = "e-m:e-p270:32:32-p271:32:32-p272:64:64-i64:64-i128:128-f80:128-n8:16:32:64-S128"
target triple = "x86_64-pc-linux-gnu"

%"class.std::__cxx11::basic_string" = type { %"struct.std::__cxx11::basic_string<char>::_Alloc_hider", i64, %union.anon }
%"struct.std::__cxx11::basic_string<char>::_Alloc_hider" = type { ptr }
%union.anon = type { i64, [8 x i8] }
%"class.std::allocator" = type { i8 }

@.str.11 = private unnamed_addr constant [38 x i8] c"data:application/octet-stream;base64,\00", align 1
@.str.12 = private unnamed_addr constant [24 x i8] c"data:image/jpeg;base64,\00", align 1
@.str.13 = private unnamed_addr constant [23 x i8] c"data:image/png;base64,\00", align 1
@.str.14 = private unnamed_addr constant [23 x i8] c"data:image/bmp;base64,\00", align 1
@.str.15 = private unnamed_addr constant [23 x i8] c"data:image/gif;base64,\00", align 1
@.str.16 = private unnamed_addr constant [24 x i8] c"data:text/plain;base64,\00", align 1
@.str.17 = private unnamed_addr constant [37 x i8] c"data:application/gltf-buffer;base64,\00", align 1

; Function Attrs: mustprogress uwtable
define dso_local noundef zeroext i1 @_ZN8tinygltf9IsDataURIERKNSt7__cxx1112basic_stringIcSt11char_traitsIcESaIcEEE(ptr noundef nonnull align 8 dereferenceable(32) %0) #4 personality ptr @__gxx_personality_v0 {
  %2 = alloca i1, align 1
  %3 = alloca ptr, align 8
  %4 = alloca %"class.std::__cxx11::basic_string", align 8
  %5 = alloca %"class.std::allocator", align 1
  %6 = alloca ptr, align 8
  %7 = alloca i32, align 4
  %8 = alloca i32, align 4
  store ptr %0, ptr %3, align 8
  call void @_ZNSaIcEC1Ev(ptr noundef nonnull align 1 dereferenceable(1) %5) #3
  invoke void @_ZNSt7__cxx1112basic_stringIcSt11char_traitsIcESaIcEEC1EPKcRKS3_(ptr noundef nonnull align 8 dereferenceable(32) %4, ptr noundef @.str.11, ptr noundef nonnull align 1 dereferenceable(1) %5)
          to label %9 unwind label %14

9:                                                ; preds = %1
  call void @_ZNSaIcED1Ev(ptr noundef nonnull align 1 dereferenceable(1) %5) #3
  %10 = load ptr, ptr %3, align 8
  %11 = call noundef i64 @_ZNKSt7__cxx1112basic_stringIcSt11char_traitsIcESaIcEE4findERKS4_m(ptr noundef nonnull align 8 dereferenceable(32) %10, ptr noundef nonnull align 8 dereferenceable(32) %4, i64 noundef 0) #3
  %12 = icmp eq i64 %11, 0
  br i1 %12, label %13, label %18

13:                                               ; preds = %9
  store i1 true, ptr %2, align 1
  store i32 1, ptr %8, align 4
  br label %65

14:                                               ; preds = %1
  %15 = landingpad { ptr, i32 }
          cleanup
  %16 = extractvalue { ptr, i32 } %15, 0
  store ptr %16, ptr %6, align 8
  %17 = extractvalue { ptr, i32 } %15, 1
  store i32 %17, ptr %7, align 4
  call void @_ZNSaIcED1Ev(ptr noundef nonnull align 1 dereferenceable(1) %5) #3
  br label %67

18:                                               ; preds = %9
  %19 = invoke noundef nonnull align 8 dereferenceable(32) ptr @_ZNSt7__cxx1112basic_stringIcSt11char_traitsIcESaIcEEaSEPKc(ptr noundef nonnull align 8 dereferenceable(32) %4, ptr noundef @.str.12)
          to label %20 unwind label %25

20:                                               ; preds = %18
  %21 = load ptr, ptr %3, align 8
  %22 = call noundef i64 @_ZNKSt7__cxx1112basic_stringIcSt11char_traitsIcESaIcEE4findERKS4_m(ptr noundef nonnull align 8 dereferenceable(32) %21, ptr noundef nonnull align 8 dereferenceable(32) %4, i64 noundef 0) #3
  %23 = icmp eq i64 %22, 0
  br i1 %23, label %24, label %29

24:                                               ; preds = %20
  store i1 true, ptr %2, align 1
  store i32 1, ptr %8, align 4
  br label %65

25:                                               ; preds = %57, %50, %43, %36, %29, %18
  %26 = landingpad { ptr, i32 }
          cleanup
  %27 = extractvalue { ptr, i32 } %26, 0
  store ptr %27, ptr %6, align 8
  %28 = extractvalue { ptr, i32 } %26, 1
  store i32 %28, ptr %7, align 4
  call void @_ZNSt7__cxx1112basic_stringIcSt11char_traitsIcESaIcEED1Ev(ptr noundef nonnull align 8 dereferenceable(32) %4) #3
  br label %67

29:                                               ; preds = %20
  %30 = invoke noundef nonnull align 8 dereferenceable(32) ptr @_ZNSt7__cxx1112basic_stringIcSt11char_traitsIcESaIcEEaSEPKc(ptr noundef nonnull align 8 dereferenceable(32) %4, ptr noundef @.str.13)
          to label %31 unwind label %25

31:                                               ; preds = %29
  %32 = load ptr, ptr %3, align 8
  %33 = call noundef i64 @_ZNKSt7__cxx1112basic_stringIcSt11char_traitsIcESaIcEE4findERKS4_m(ptr noundef nonnull align 8 dereferenceable(32) %32, ptr noundef nonnull align 8 dereferenceable(32) %4, i64 noundef 0) #3
  %34 = icmp eq i64 %33, 0
  br i1 %34, label %35, label %36

35:                                               ; preds = %31
  store i1 true, ptr %2, align 1
  store i32 1, ptr %8, align 4
  br label %65

36:                                               ; preds = %31
  %37 = invoke noundef nonnull align 8 dereferenceable(32) ptr @_ZNSt7__cxx1112basic_stringIcSt11char_traitsIcESaIcEEaSEPKc(ptr noundef nonnull align 8 dereferenceable(32) %4, ptr noundef @.str.14)
          to label %38 unwind label %25

38:                                               ; preds = %36
  %39 = load ptr, ptr %3, align 8
  %40 = call noundef i64 @_ZNKSt7__cxx1112basic_stringIcSt11char_traitsIcESaIcEE4findERKS4_m(ptr noundef nonnull align 8 dereferenceable(32) %39, ptr noundef nonnull align 8 dereferenceable(32) %4, i64 noundef 0) #3
  %41 = icmp eq i64 %40, 0
  br i1 %41, label %42, label %43

42:                                               ; preds = %38
  store i1 true, ptr %2, align 1
  store i32 1, ptr %8, align 4
  br label %65

43:                                               ; preds = %38
  %44 = invoke noundef nonnull align 8 dereferenceable(32) ptr @_ZNSt7__cxx1112basic_stringIcSt11char_traitsIcESaIcEEaSEPKc(ptr noundef nonnull align 8 dereferenceable(32) %4, ptr noundef @.str.15)
          to label %45 unwind label %25

45:                                               ; preds = %43
  %46 = load ptr, ptr %3, align 8
  %47 = call noundef i64 @_ZNKSt7__cxx1112basic_stringIcSt11char_traitsIcESaIcEE4findERKS4_m(ptr noundef nonnull align 8 dereferenceable(32) %46, ptr noundef nonnull align 8 dereferenceable(32) %4, i64 noundef 0) #3
  %48 = icmp eq i64 %47, 0
  br i1 %48, label %49, label %50

49:                                               ; preds = %45
  store i1 true, ptr %2, align 1
  store i32 1, ptr %8, align 4
  br label %65

50:                                               ; preds = %45
  %51 = invoke noundef nonnull align 8 dereferenceable(32) ptr @_ZNSt7__cxx1112basic_stringIcSt11char_traitsIcESaIcEEaSEPKc(ptr noundef nonnull align 8 dereferenceable(32) %4, ptr noundef @.str.16)
          to label %52 unwind label %25

52:                                               ; preds = %50
  %53 = load ptr, ptr %3, align 8
  %54 = call noundef i64 @_ZNKSt7__cxx1112basic_stringIcSt11char_traitsIcESaIcEE4findERKS4_m(ptr noundef nonnull align 8 dereferenceable(32) %53, ptr noundef nonnull align 8 dereferenceable(32) %4, i64 noundef 0) #3
  %55 = icmp eq i64 %54, 0
  br i1 %55, label %56, label %57

56:                                               ; preds = %52
  store i1 true, ptr %2, align 1
  store i32 1, ptr %8, align 4
  br label %65

57:                                               ; preds = %52
  %58 = invoke noundef nonnull align 8 dereferenceable(32) ptr @_ZNSt7__cxx1112basic_stringIcSt11char_traitsIcESaIcEEaSEPKc(ptr noundef nonnull align 8 dereferenceable(32) %4, ptr noundef @.str.17)
          to label %59 unwind label %25

59:                                               ; preds = %57
  %60 = load ptr, ptr %3, align 8
  %61 = call noundef i64 @_ZNKSt7__cxx1112basic_stringIcSt11char_traitsIcESaIcEE4findERKS4_m(ptr noundef nonnull align 8 dereferenceable(32) %60, ptr noundef nonnull align 8 dereferenceable(32) %4, i64 noundef 0) #3
  %62 = icmp eq i64 %61, 0
  br i1 %62, label %63, label %64

63:                                               ; preds = %59
  store i1 true, ptr %2, align 1
  store i32 1, ptr %8, align 4
  br label %65

64:                                               ; preds = %59
  store i1 false, ptr %2, align 1
  store i32 1, ptr %8, align 4
  br label %65

65:                                               ; preds = %64, %63, %56, %49, %42, %35, %24, %13
  call void @_ZNSt7__cxx1112basic_stringIcSt11char_traitsIcESaIcEED1Ev(ptr noundef nonnull align 8 dereferenceable(32) %4) #3
  %66 = load i1, ptr %2, align 1
  ret i1 %66

67:                                               ; preds = %25, %14
  %68 = load ptr, ptr %6, align 8
  %69 = load i32, ptr %7, align 4
  %70 = insertvalue { ptr, i32 } poison, ptr %68, 0
  %71 = insertvalue { ptr, i32 } %70, i32 %69, 1
  resume { ptr, i32 } %71
}